target datalayout = "e-m:e-p270:32:32-p271:32:32-p272:64:64-i64:64-i128:128-f80:128-n8:16:32:64-S128"
target triple = "x86_64-unknown-linux-gnu"

%struct.config = type { ptr, %struct.cliConnInfo, ptr, i32, %struct.cliSSLconfig, i32, i32, i32, i32, i32, i32, i32, i64, i32, i32, i32, i32, i32, i32, i64, i64, ptr, ptr, i32, i32, i32, i32, ptr, ptr, i32, i32, i32, ptr, i32, i32, ptr, ptr, ptr, ptr, i32, i32, i32, i32, %union.pthread_mutex_t, %union.pthread_mutex_t, i32 }
%struct.cliConnInfo = type { ptr, i32, i32, ptr, ptr }
%struct.cliSSLconfig = type { ptr, ptr, ptr, i32, ptr, ptr, ptr, ptr }
%union.pthread_mutex_t = type { %struct.__pthread_mutex_s }
%struct.__pthread_mutex_s = type { i32, i32, i32, i32, i32, i16, i16, %struct.__pthread_internal_list }
%struct.__pthread_internal_list = type { ptr, ptr }
%struct.benchmarkThread = type { i32, i64, ptr }
%struct._client = type { ptr, ptr, ptr, i64, i64, ptr, i64, i64, i64, i64, i64, i32, i32, i32, i32, ptr, i32 }
%struct.redisContext = type { ptr, i32, [128 x i8], i32, i32, ptr, ptr, i32, ptr, ptr, %struct.anon, %struct.anon.0, ptr, i64, ptr, ptr, ptr, ptr }
%struct.anon = type { ptr, ptr, i32 }
%struct.anon.0 = type { ptr }

@config = internal global %struct.config zeroinitializer, align 8

; Function Attrs: nounwind uwtable
define internal void @freeClient(ptr noundef %c) #0 {
entry:
  %c.addr = alloca ptr, align 8
  %el = alloca ptr, align 8
  %ln = alloca ptr, align 8
  %requests_finished = alloca i32, align 4
  %atomic-temp = alloca i32, align 4
  store ptr %c, ptr %c.addr, align 8
  %0 = load ptr, ptr %c.addr, align 8
  %thread_id = getelementptr inbounds %struct._client, ptr %0, i32 0, i32 14
  %1 = load i32, ptr %thread_id, align 4
  %cmp = icmp sge i32 %1, 0
  br i1 %cmp, label %cond.true, label %cond.false

cond.true:                                        ; preds = %entry
  %2 = load ptr, ptr getelementptr inbounds (%struct.config, ptr @config, i32 0, i32 32), align 8
  %3 = load ptr, ptr %c.addr, align 8
  %thread_id1 = getelementptr inbounds %struct._client, ptr %3, i32 0, i32 14
  %4 = load i32, ptr %thread_id1, align 4
  %idxprom = sext i32 %4 to i64
  %arrayidx = getelementptr inbounds ptr, ptr %2, i64 %idxprom
  %5 = load ptr, ptr %arrayidx, align 8
  %el2 = getelementptr inbounds %struct.benchmarkThread, ptr %5, i32 0, i32 2
  %6 = load ptr, ptr %el2, align 8
  br label %cond.end

cond.false:                                       ; preds = %entry
  %7 = load ptr, ptr @config, align 8
  br label %cond.end

cond.end:                                         ; preds = %cond.false, %cond.true
  %cond = phi ptr [ %6, %cond.true ], [ %7, %cond.false ]
  store ptr %cond, ptr %el, align 8
  %8 = load ptr, ptr %el, align 8
  %9 = load ptr, ptr %c.addr, align 8
  %context = getelementptr inbounds %struct._client, ptr %9, i32 0, i32 0
  %10 = load ptr, ptr %context, align 8
  %fd = getelementptr inbounds %struct.redisContext, ptr %10, i32 0, i32 3
  %11 = load i32, ptr %fd, align 4
  call void @aeDeleteFileEvent(ptr noundef %8, i32 noundef %11, i32 noundef 2)
  %12 = load ptr, ptr %el, align 8
  %13 = load ptr, ptr %c.addr, align 8
  %context3 = getelementptr inbounds %struct._client, ptr %13, i32 0, i32 0
  %14 = load ptr, ptr %context3, align 8
  %fd4 = getelementptr inbounds %struct.redisContext, ptr %14, i32 0, i32 3
  %15 = load i32, ptr %fd4, align 4
  call void @aeDeleteFileEvent(ptr noundef %12, i32 noundef %15, i32 noundef 1)
  %16 = load ptr, ptr %c.addr, align 8
  %thread_id5 = getelementptr inbounds %struct._client, ptr %16, i32 0, i32 14
  %17 = load i32, ptr %thread_id5, align 4
  %cmp6 = icmp sge i32 %17, 0
  br i1 %cmp6, label %if.then, label %if.end9

if.then:                                          ; preds = %cond.end
  store i32 0, ptr %requests_finished, align 4
  br label %do.body

do.body:                                          ; preds = %if.then
  %18 = load atomic i32, ptr getelementptr inbounds (%struct.config, ptr @config, i32 0, i32 9) monotonic, align 8
  store i32 %18, ptr %atomic-temp, align 4
  %19 = load i32, ptr %atomic-temp, align 4
  store i32 %19, ptr %requests_finished, align 4
  br label %do.end

do.end:                                           ; preds = %do.body
  %20 = load i32, ptr %requests_finished, align 4
  %21 = load i32, ptr getelementptr inbounds (%struct.config, ptr @config, i32 0, i32 7), align 8
  %cmp7 = icmp sge i32 %20, %21
  br i1 %cmp7, label %if.then8, label %if.end

if.then8:                                         ; preds = %do.end
  %22 = load ptr, ptr %el, align 8
  call void @aeStop(ptr noundef %22)
  br label %if.end

if.end:                                           ; preds = %if.then8, %do.end
  br label %if.end9

if.end9:                                          ; preds = %if.end, %cond.end
  %23 = load ptr, ptr %c.addr, align 8
  %context10 = getelementptr inbounds %struct._client, ptr %23, i32 0, i32 0
  %24 = load ptr, ptr %context10, align 8
  call void @redisFree(ptr noundef %24)
  %25 = load ptr, ptr %c.addr, align 8
  %obuf = getelementptr inbounds %struct._client, ptr %25, i32 0, i32 1
  %26 = load ptr, ptr %obuf, align 8
  call void @hi_sdsfree(ptr noundef %26)
  %27 = load ptr, ptr %c.addr, align 8
  %randptr = getelementptr inbounds %struct._client, ptr %27, i32 0, i32 2
  %28 = load ptr, ptr %randptr, align 8
  call void @zfree(ptr noundef %28)
  %29 = load ptr, ptr %c.addr, align 8
  %stagptr = getelementptr inbounds %struct._client, ptr %29, i32 0, i32 5
  %30 = load ptr, ptr %stagptr, align 8
  call void @zfree(ptr noundef %30)
  %31 = load ptr, ptr %c.addr, align 8
  call void @zfree(ptr noundef %31)
  %32 = load i32, ptr getelementptr inbounds (%struct.config, ptr @config, i32 0, i32 31), align 8
  %tobool = icmp ne i32 %32, 0
  br i1 %tobool, label %if.then11, label %if.end12

if.then11:                                        ; preds = %if.end9
  %call = call i32 @pthread_mutex_lock(ptr noundef getelementptr inbounds (%struct.config, ptr @config, i32 0, i32 43)) #12
  br label %if.end12

if.end12:                                         ; preds = %if.then11, %if.end9
  %33 = atomicrmw sub ptr getelementptr inbounds (%struct.config, ptr @config, i32 0, i32 6), i32 1 seq_cst, align 4
  %34 = load ptr, ptr getelementptr inbounds (%struct.config, ptr @config, i32 0, i32 22), align 8
  %35 = load ptr, ptr %c.addr, align 8
  %call13 = call ptr @listSearchKey(ptr noundef %34, ptr noundef %35)
  store ptr %call13, ptr %ln, align 8
  %36 = load ptr, ptr getelementptr inbounds (%struct.config, ptr @config, i32 0, i32 22), align 8
  %37 = load ptr, ptr %ln, align 8
  call void @listDelNode(ptr noundef %36, ptr noundef %37)
  %38 = load i32, ptr getelementptr inbounds (%struct.config, ptr @config, i32 0, i32 31), align 8
  %tobool14 = icmp ne i32 %38, 0
  br i1 %tobool14, label %if.then15, label %if.end17

if.then15:                                        ; preds = %if.end12
  %call16 = call i32 @pthread_mutex_unlock(ptr noundef getelementptr inbounds (%struct.config, ptr @config, i32 0, i32 43)) #12
  br label %if.end17

if.end17:                                         ; preds = %if.then15, %if.end12
  ret void
}