; Function Attrs: nounwind uwtable
define internal fastcc void @freeClient(ptr noundef %c) unnamed_addr #0 {
entry:
  %thread_id = getelementptr inbounds i8, ptr %c, i64 100
  %0 = load i32, ptr %thread_id, align 4
  %cmp = icmp sgt i32 %0, -1
  br i1 %cmp, label %cond.true, label %cond.end

cond.true:                                        ; preds = %entry
  %1 = load ptr, ptr getelementptr inbounds (%struct.config, ptr @config, i64 0, i32 32), align 8
  %idxprom = zext nneg i32 %0 to i64
  %arrayidx = getelementptr inbounds ptr, ptr %1, i64 %idxprom
  %2 = load ptr, ptr %arrayidx, align 8
  %el2 = getelementptr inbounds i8, ptr %2, i64 16
  br label %cond.end

cond.end:                                         ; preds = %entry, %cond.true
  %cond.in = phi ptr [ %el2, %cond.true ], [ @config, %entry ]
  %cond = load ptr, ptr %cond.in, align 8
  %3 = load ptr, ptr %c, align 8
  %fd = getelementptr inbounds i8, ptr %3, i64 140
  %4 = load i32, ptr %fd, align 4
  tail call void @aeDeleteFileEvent(ptr noundef %cond, i32 noundef %4, i32 noundef 2) #22
  %5 = load ptr, ptr %c, align 8
  %fd4 = getelementptr inbounds i8, ptr %5, i64 140
  %6 = load i32, ptr %fd4, align 4
  tail call void @aeDeleteFileEvent(ptr noundef %cond, i32 noundef %6, i32 noundef 1) #22
  %7 = load i32, ptr %thread_id, align 4
  %cmp6 = icmp sgt i32 %7, -1
  br i1 %cmp6, label %if.then, label %if.end9

if.then:                                          ; preds = %cond.end
  %8 = load atomic i32, ptr getelementptr inbounds (%struct.config, ptr @config, i64 0, i32 9) monotonic, align 8
  %9 = load i32, ptr getelementptr inbounds (%struct.config, ptr @config, i64 0, i32 7), align 8
  %cmp7.not = icmp slt i32 %8, %9
  br i1 %cmp7.not, label %if.end9, label %if.then8

if.then8:                                         ; preds = %if.then
  tail call void @aeStop(ptr noundef %cond) #22
  br label %if.end9

if.end9:                                          ; preds = %if.then, %if.then8, %cond.end
  %10 = load ptr, ptr %c, align 8
  tail call void @redisFree(ptr noundef %10) #22
  %obuf = getelementptr inbounds i8, ptr %c, i64 8
  %11 = load ptr, ptr %obuf, align 8
  tail call void @hi_sdsfree(ptr noundef %11) #22
  %randptr = getelementptr inbounds i8, ptr %c, i64 16
  %12 = load ptr, ptr %randptr, align 8
  tail call void @zfree(ptr noundef %12) #22
  %stagptr = getelementptr inbounds i8, ptr %c, i64 40
  %13 = load ptr, ptr %stagptr, align 8
  tail call void @zfree(ptr noundef %13) #22
  tail call void @zfree(ptr noundef nonnull %c) #22
  %14 = load i32, ptr getelementptr inbounds (%struct.config, ptr @config, i64 0, i32 31), align 8
  %tobool.not = icmp eq i32 %14, 0
  br i1 %tobool.not, label %if.end12, label %if.then11

if.then11:                                        ; preds = %if.end9
  %call = tail call i32 @pthread_mutex_lock(ptr noundef nonnull getelementptr inbounds (%struct.config, ptr @config, i64 0, i32 43)) #22
  br label %if.end12

if.end12:                                         ; preds = %if.then11, %if.end9
  %15 = atomicrmw sub ptr getelementptr inbounds (%struct.config, ptr @config, i64 0, i32 6), i32 1 seq_cst, align 4
  %16 = load ptr, ptr getelementptr inbounds (%struct.config, ptr @config, i64 0, i32 22), align 8
  %call13 = tail call ptr @listSearchKey(ptr noundef %16, ptr noundef nonnull %c) #22
  %17 = load ptr, ptr getelementptr inbounds (%struct.config, ptr @config, i64 0, i32 22), align 8
  tail call void @listDelNode(ptr noundef %17, ptr noundef %call13) #22
  %18 = load i32, ptr getelementptr inbounds (%struct.config, ptr @config, i64 0, i32 31), align 8
  %tobool14.not = icmp eq i32 %18, 0
  br i1 %tobool14.not, label %if.end17, label %if.then15

if.then15:                                        ; preds = %if.end12
  %call16 = tail call i32 @pthread_mutex_unlock(ptr noundef nonnull getelementptr inbounds (%struct.config, ptr @config, i64 0, i32 43)) #22
  br label %if.end17

if.end17:                                         ; preds = %if.then15, %if.end12
  ret void
}